; ModuleID = '36/1210.c'
source_filename = "36/1210.c"
target datalayout = "e-m:e-p270:32:32-p271:32:32-p272:64:64-i64:64-f80:128-n8:16:32:64-S128"
target triple = "x86_64-pc-linux-gnu"

@.str = private unnamed_addr constant [6 x i8] c"%s %s\00", align 1
@.str.1 = private unnamed_addr constant [4 x i8] c"YES\00", align 1
@.str.2 = private unnamed_addr constant [3 x i8] c"NO\00", align 1

; Function Attrs: noinline nounwind uwtable
define dso_local i32 @main() #0 {
  %1 = alloca i32, align 4
  %2 = alloca [2 x [200 x i8]], align 16
  %3 = alloca i32, align 4
  %4 = alloca i32, align 4
  %5 = alloca i8, align 1
  %6 = alloca i32, align 4
  store i32 0, i32* %1, align 4
  %7 = getelementptr inbounds [2 x [200 x i8]], [2 x [200 x i8]]* %2, i64 0, i64 0
  %8 = getelementptr inbounds [200 x i8], [200 x i8]* %7, i64 0, i64 0
  %9 = getelementptr inbounds [2 x [200 x i8]], [2 x [200 x i8]]* %2, i64 0, i64 1
  %10 = getelementptr inbounds [200 x i8], [200 x i8]* %9, i64 0, i64 0
  %11 = call i32 (i8*, ...) @__isoc99_scanf(i8* getelementptr inbounds ([6 x i8], [6 x i8]* @.str, i64 0, i64 0), i8* %8, i8* %10)
  store i32 0, i32* %3, align 4
  store i32 0, i32* %4, align 4
  %12 = getelementptr inbounds [2 x [200 x i8]], [2 x [200 x i8]]* %2, i64 0, i64 0
  %13 = getelementptr inbounds [200 x i8], [200 x i8]* %12, i64 0, i64 0
  %14 = call i64 @strlen(i8* %13) #3
  %15 = trunc i64 %14 to i32
  store i32 %15, i32* %6, align 4
  store i32 1, i32* %3, align 4
  br label %16

16:                                               ; preds = %69, %0
  %17 = load i32, i32* %3, align 4
  %18 = load i32, i32* %6, align 4
  %19 = icmp sle i32 %17, %18
  br i1 %19, label %20, label %72

20:                                               ; preds = %16
  store i32 0, i32* %4, align 4
  br label %21

21:                                               ; preds = %65, %20
  %22 = load i32, i32* %4, align 4
  %23 = load i32, i32* %6, align 4
  %24 = load i32, i32* %3, align 4
  %25 = sub nsw i32 %23, %24
  %26 = icmp slt i32 %22, %25
  br i1 %26, label %27, label %68

27:                                               ; preds = %21
  %28 = getelementptr inbounds [2 x [200 x i8]], [2 x [200 x i8]]* %2, i64 0, i64 0
  %29 = load i32, i32* %4, align 4
  %30 = sext i32 %29 to i64
  %31 = getelementptr inbounds [200 x i8], [200 x i8]* %28, i64 0, i64 %30
  %32 = load i8, i8* %31, align 1
  %33 = sext i8 %32 to i32
  %34 = getelementptr inbounds [2 x [200 x i8]], [2 x [200 x i8]]* %2, i64 0, i64 0
  %35 = load i32, i32* %4, align 4
  %36 = add nsw i32 %35, 1
  %37 = sext i32 %36 to i64
  %38 = getelementptr inbounds [200 x i8], [200 x i8]* %34, i64 0, i64 %37
  %39 = load i8, i8* %38, align 1
  %40 = sext i8 %39 to i32
  %41 = icmp sle i32 %33, %40
  br i1 %41, label %42, label %64

42:                                               ; preds = %27
  %43 = getelementptr inbounds [2 x [200 x i8]], [2 x [200 x i8]]* %2, i64 0, i64 0
  %44 = load i32, i32* %4, align 4
  %45 = sext i32 %44 to i64
  %46 = getelementptr inbounds [200 x i8], [200 x i8]* %43, i64 0, i64 %45
  %47 = load i8, i8* %46, align 1
  store i8 %47, i8* %5, align 1
  %48 = getelementptr inbounds [2 x [200 x i8]], [2 x [200 x i8]]* %2, i64 0, i64 0
  %49 = load i32, i32* %4, align 4
  %50 = add nsw i32 %49, 1
  %51 = sext i32 %50 to i64
  %52 = getelementptr inbounds [200 x i8], [200 x i8]* %48, i64 0, i64 %51
  %53 = load i8, i8* %52, align 1
  %54 = getelementptr inbounds [2 x [200 x i8]], [2 x [200 x i8]]* %2, i64 0, i64 0
  %55 = load i32, i32* %4, align 4
  %56 = sext i32 %55 to i64
  %57 = getelementptr inbounds [200 x i8], [200 x i8]* %54, i64 0, i64 %56
  store i8 %53, i8* %57, align 1
  %58 = load i8, i8* %5, align 1
  %59 = getelementptr inbounds [2 x [200 x i8]], [2 x [200 x i8]]* %2, i64 0, i64 0
  %60 = load i32, i32* %4, align 4
  %61 = add nsw i32 %60, 1
  %62 = sext i32 %61 to i64
  %63 = getelementptr inbounds [200 x i8], [200 x i8]* %59, i64 0, i64 %62
  store i8 %58, i8* %63, align 1
  br label %64

64:                                               ; preds = %42, %27
  br label %65

65:                                               ; preds = %64
  %66 = load i32, i32* %4, align 4
  %67 = add nsw i32 %66, 1
  store i32 %67, i32* %4, align 4
  br label %21

68:                                               ; preds = %21
  br label %69

69:                                               ; preds = %68
  %70 = load i32, i32* %3, align 4
  %71 = add nsw i32 %70, 1
  store i32 %71, i32* %3, align 4
  br label %16

72:                                               ; preds = %16
  store i32 1, i32* %3, align 4
  br label %73

73:                                               ; preds = %126, %72
  %74 = load i32, i32* %3, align 4
  %75 = load i32, i32* %6, align 4
  %76 = icmp sle i32 %74, %75
  br i1 %76, label %77, label %129

77:                                               ; preds = %73
  store i32 0, i32* %4, align 4
  br label %78

78:                                               ; preds = %122, %77
  %79 = load i32, i32* %4, align 4
  %80 = load i32, i32* %6, align 4
  %81 = load i32, i32* %3, align 4
  %82 = sub nsw i32 %80, %81
  %83 = icmp slt i32 %79, %82
  br i1 %83, label %84, label %125

84:                                               ; preds = %78
  %85 = getelementptr inbounds [2 x [200 x i8]], [2 x [200 x i8]]* %2, i64 0, i64 1
  %86 = load i32, i32* %4, align 4
  %87 = sext i32 %86 to i64
  %88 = getelementptr inbounds [200 x i8], [200 x i8]* %85, i64 0, i64 %87
  %89 = load i8, i8* %88, align 1
  %90 = sext i8 %89 to i32
  %91 = getelementptr inbounds [2 x [200 x i8]], [2 x [200 x i8]]* %2, i64 0, i64 1
  %92 = load i32, i32* %4, align 4
  %93 = add nsw i32 %92, 1
  %94 = sext i32 %93 to i64
  %95 = getelementptr inbounds [200 x i8], [200 x i8]* %91, i64 0, i64 %94
  %96 = load i8, i8* %95, align 1
  %97 = sext i8 %96 to i32
  %98 = icmp sle i32 %90, %97
  br i1 %98, label %99, label %121

99:                                               ; preds = %84
  %100 = getelementptr inbounds [2 x [200 x i8]], [2 x [200 x i8]]* %2, i64 0, i64 1
  %101 = load i32, i32* %4, align 4
  %102 = sext i32 %101 to i64
  %103 = getelementptr inbounds [200 x i8], [200 x i8]* %100, i64 0, i64 %102
  %104 = load i8, i8* %103, align 1
  store i8 %104, i8* %5, align 1
  %105 = getelementptr inbounds [2 x [200 x i8]], [2 x [200 x i8]]* %2, i64 0, i64 1
  %106 = load i32, i32* %4, align 4
  %107 = add nsw i32 %106, 1
  %108 = sext i32 %107 to i64
  %109 = getelementptr inbounds [200 x i8], [200 x i8]* %105, i64 0, i64 %108
  %110 = load i8, i8* %109, align 1
  %111 = getelementptr inbounds [2 x [200 x i8]], [2 x [200 x i8]]* %2, i64 0, i64 1
  %112 = load i32, i32* %4, align 4
  %113 = sext i32 %112 to i64
  %114 = getelementptr inbounds [200 x i8], [200 x i8]* %111, i64 0, i64 %113
  store i8 %110, i8* %114, align 1
  %115 = load i8, i8* %5, align 1
  %116 = getelementptr inbounds [2 x [200 x i8]], [2 x [200 x i8]]* %2, i64 0, i64 1
  %117 = load i32, i32* %4, align 4
  %118 = add nsw i32 %117, 1
  %119 = sext i32 %118 to i64
  %120 = getelementptr inbounds [200 x i8], [200 x i8]* %116, i64 0, i64 %119
  store i8 %115, i8* %120, align 1
  br label %121

121:                                              ; preds = %99, %84
  br label %122

122:                                              ; preds = %121
  %123 = load i32, i32* %4, align 4
  %124 = add nsw i32 %123, 1
  store i32 %124, i32* %4, align 4
  br label %78

125:                                              ; preds = %78
  br label %126

126:                                              ; preds = %125
  %127 = load i32, i32* %3, align 4
  %128 = add nsw i32 %127, 1
  store i32 %128, i32* %3, align 4
  br label %73

129:                                              ; preds = %73
  %130 = getelementptr inbounds [2 x [200 x i8]], [2 x [200 x i8]]* %2, i64 0, i64 1
  %131 = getelementptr inbounds [200 x i8], [200 x i8]* %130, i64 0, i64 0
  %132 = getelementptr inbounds [2 x [200 x i8]], [2 x [200 x i8]]* %2, i64 0, i64 0
  %133 = getelementptr inbounds [200 x i8], [200 x i8]* %132, i64 0, i64 0
  %134 = call i32 @strcmp(i8* %131, i8* %133) #3
  %135 = icmp eq i32 %134, 0
  br i1 %135, label %136, label %138

136:                                              ; preds = %129
  %137 = call i32 (i8*, ...) @printf(i8* getelementptr inbounds ([4 x i8], [4 x i8]* @.str.1, i64 0, i64 0))
  br label %140

138:                                              ; preds = %129
  %139 = call i32 (i8*, ...) @printf(i8* getelementptr inbounds ([3 x i8], [3 x i8]* @.str.2, i64 0, i64 0))
  br label %140

140:                                              ; preds = %138, %136
  ret i32 0
}

declare dso_local i32 @__isoc99_scanf(i8*, ...) #1

; Function Attrs: nounwind readonly
declare dso_local i64 @strlen(i8*) #2

; Function Attrs: nounwind readonly
declare dso_local i32 @strcmp(i8*, i8*) #2

declare dso_local i32 @printf(i8*, ...) #1


!llvm.module.flags = !{!0}
!llvm.ident = !{!1}

!0 = !{i32 1, !"wchar_size", i32 4}
!1 = !{!"clang version 10.0.0-4ubuntu1 "}
